(dp0
S'muffin_cupcake_features'
p1
(lp2
S'Flour'
p3
aS'Sugar'
p4
asS'muffin_cupcake_model'
p5
ccopy_reg
_reconstructor
p6
(csklearn.svm.classes
SVC
p7
c__builtin__
object
p8
Ntp9
Rp10
(dp11
S'_impl'
p12
S'c_svc'
p13
sS'kernel'
p14
S'linear'
p15
sS'verbose'
p16
I00
sS'probability'
p17
I00
sS'classes_'
p18
cnumpy.core.multiarray
_reconstruct
p19
(cnumpy
ndarray
p20
(I0
tp21
S'b'
p22
tp23
Rp24
(I1
(I2
tp25
cnumpy
dtype
p26
(S'i4'
p27
I0
I1
tp28
Rp29
(I3
S'<'
p30
NNNI-1
I-1
I0
tp31
bI00
S'\x00\x00\x00\x00\x01\x00\x00\x00'
p32
tp33
bsS'support_'
p34
g19
(g20
(I0
tp35
g22
tp36
Rp37
(I1
(I3
tp38
g29
I00
S'\x03\x00\x00\x00\x0b\x00\x00\x00\x0f\x00\x00\x00'
p39
tp40
bsS'dual_coef_'
p41
g19
(g20
(I0
tp42
g22
tp43
Rp44
(I1
(I1
I3
tp45
g26
(S'f8'
p46
I0
I1
tp47
Rp48
(I3
S'<'
p49
NNNI-1
I-1
I0
tp50
bI00
S'\x19;\x16\x81\xfdo\xcc\xbf5\xdf\xda9\x1aG\xc9? \xdf\xda9\x1aG\x99?'
p51
tp52
bsS'shrinking'
p53
I01
sS'class_weight'
p54
NsS'_gamma'
p55
F0.5
sS'probA_'
p56
g19
(g20
(I0
tp57
g22
tp58
Rp59
(I1
(I0
tp60
g48
I00
S''
p61
tp62
bsS'_sparse'
p63
I00
sS'class_weight_'
p64
g19
(g20
(I0
tp65
g22
tp66
Rp67
(I1
(I2
tp68
g48
I00
S'\x00\x00\x00\x00\x00\x00\xf0?\x00\x00\x00\x00\x00\x00\xf0?'
p69
tp70
bsS'random_state'
p71
NsS'_sklearn_version'
p72
S'0.18.1'
p73
sS'tol'
p74
F0.001
sS'coef0'
p75
F0.0
sS'nu'
p76
F0.0
sS'n_support_'
p77
g19
(g20
(I0
tp78
g22
tp79
Rp80
(I1
(I2
tp81
g29
I00
S'\x01\x00\x00\x00\x02\x00\x00\x00'
p82
tp83
bsS'shape_fit_'
p84
(I20
I2
tp85
sS'C'
p86
F1.0
sS'support_vectors_'
p87
g19
(g20
(I0
tp88
g22
tp89
Rp90
(I1
(I3
I2
tp91
g48
I00
S'\x00\x00\x00\x00\x00\x80F@\x00\x00\x00\x00\x00\x001@\x00\x00\x00\x00\x00\x00E@\x00\x00\x00\x00\x00\x000@\x00\x00\x00\x00\x00\x00E@\x00\x00\x00\x00\x00\x009@'
p92
tp93
bsS'_dual_coef_'
p94
g19
(g20
(I0
tp95
g22
tp96
Rp97
(I1
(I1
I3
tp98
g48
I00
S'\x19;\x16\x81\xfdo\xcc?5\xdf\xda9\x1aG\xc9\xbf \xdf\xda9\x1aG\x99\xbf'
p99
tp100
bsS'degree'
p101
I3
sS'epsilon'
p102
F0.0
sS'max_iter'
p103
I-1
sS'decision_function_shape'
p104
NsS'fit_status_'
p105
I0
sS'_intercept_'
p106
g19
(g20
(I0
tp107
g22
tp108
Rp109
(I1
(I1
tp110
g48
I00
S'\xe9\xbcm\xd12\xfe<\xc0'
p111
tp112
bsS'intercept_'
p113
g19
(g20
(I0
tp114
g22
tp115
Rp116
(I1
(I1
tp117
g48
I00
S'\xe9\xbcm\xd12\xfe<@'
p118
tp119
bsS'probB_'
p120
g19
(g20
(I0
tp121
g22
tp122
Rp123
(I1
(I0
tp124
g48
I00
g61
tp125
bsS'cache_size'
p126
I200
sS'gamma'
p127
S'auto'
p128
sbsS'all_features'
p129
(lp130
S'Flour'
p131
aS'Milk'
p132
aS'Sugar'
p133
aS'Butter'
p134
aS'Egg'
p135
aS'Baking Powder'
p136
aS'Vanilla'
p137
aS'Salt'
p138
as.